; ModuleID = 'source-C-CXX/42/189.c'
source_filename = "source-C-CXX/42/189.c"
target datalayout = "e-m:e-p270:32:32-p271:32:32-p272:64:64-i64:64-f80:128-n8:16:32:64-S128"
target triple = "x86_64-pc-linux-gnu"

@.str = private unnamed_addr constant [3 x i8] c"%d\00", align 1
@.str.1 = private unnamed_addr constant [7 x i8] c"%d %d\0A\00", align 1

; Function Attrs: nofree norecurse nosync nounwind readnone sspstrong uwtable
define dso_local i32 @isprime(i32 %0) local_unnamed_addr #0 {
  %2 = icmp slt i32 %0, 4
  br i1 %2, label %11, label %6

3:                                                ; preds = %6
  %4 = mul nsw i32 %10, %10
  %5 = icmp sgt i32 %4, %0
  br i1 %5, label %11, label %6, !llvm.loop !5

6:                                                ; preds = %1, %3
  %7 = phi i32 [ %10, %3 ], [ 2, %1 ]
  %8 = srem i32 %0, %7
  %9 = icmp eq i32 %8, 0
  %10 = add nuw nsw i32 %7, 1
  br i1 %9, label %11, label %3

11:                                               ; preds = %6, %3, %1
  %12 = phi i32 [ 1, %1 ], [ 1, %3 ], [ 0, %6 ]
  ret i32 %12
}

; Function Attrs: argmemonly mustprogress nofree nosync nounwind willreturn
declare void @llvm.lifetime.start.p0i8(i64 immarg, i8* nocapture) #1

; Function Attrs: argmemonly mustprogress nofree nosync nounwind willreturn
declare void @llvm.lifetime.end.p0i8(i64 immarg, i8* nocapture) #1

; Function Attrs: nofree nounwind sspstrong uwtable
define dso_local i32 @main(i32 %0, i8** nocapture readnone %1) local_unnamed_addr #2 {
  %3 = alloca i32, align 4
  %4 = bitcast i32* %3 to i8*
  call void @llvm.lifetime.start.p0i8(i64 4, i8* nonnull %4) #4
  %5 = call i32 (i8*, ...) @__isoc99_scanf(i8* getelementptr inbounds ([3 x i8], [3 x i8]* @.str, i64 0, i64 0), i32* nonnull %3)
  %6 = load i32, i32* %3, align 4, !tbaa !7
  %7 = icmp slt i32 %6, 6
  br i1 %7, label %39, label %8

8:                                                ; preds = %2, %34
  %9 = phi i32 [ %35, %34 ], [ %6, %2 ]
  %10 = phi i32 [ %36, %34 ], [ 3, %2 ]
  %11 = icmp ult i32 %10, 4
  br i1 %11, label %20, label %15

12:                                               ; preds = %15
  %13 = mul nsw i32 %19, %19
  %14 = icmp ugt i32 %13, %10
  br i1 %14, label %20, label %15, !llvm.loop !5

15:                                               ; preds = %8, %12
  %16 = phi i32 [ %19, %12 ], [ 2, %8 ]
  %17 = urem i32 %10, %16
  %18 = icmp eq i32 %17, 0
  %19 = add nuw nsw i32 %16, 1
  br i1 %18, label %34, label %12

20:                                               ; preds = %12, %8
  %21 = sub nsw i32 %9, %10
  %22 = icmp slt i32 %21, 4
  br i1 %22, label %31, label %26

23:                                               ; preds = %26
  %24 = mul nsw i32 %30, %30
  %25 = icmp sgt i32 %24, %21
  br i1 %25, label %31, label %26, !llvm.loop !5

26:                                               ; preds = %20, %23
  %27 = phi i32 [ %30, %23 ], [ 2, %20 ]
  %28 = srem i32 %21, %27
  %29 = icmp eq i32 %28, 0
  %30 = add nuw nsw i32 %27, 1
  br i1 %29, label %34, label %23

31:                                               ; preds = %23, %20
  %32 = call i32 (i8*, ...) @printf(i8* nonnull dereferenceable(1) getelementptr inbounds ([7 x i8], [7 x i8]* @.str.1, i64 0, i64 0), i32 %10, i32 %21)
  %33 = load i32, i32* %3, align 4, !tbaa !7
  br label %34

34:                                               ; preds = %15, %26, %31
  %35 = phi i32 [ %33, %31 ], [ %9, %26 ], [ %9, %15 ]
  %36 = add nuw nsw i32 %10, 2
  %37 = shl nuw nsw i32 %36, 1
  %38 = icmp sgt i32 %37, %35
  br i1 %38, label %39, label %8, !llvm.loop !11

39:                                               ; preds = %34, %2
  call void @llvm.lifetime.end.p0i8(i64 4, i8* nonnull %4) #4
  ret i32 0
}

; Function Attrs: nofree nounwind
declare noundef i32 @__isoc99_scanf(i8* nocapture noundef readonly, ...) local_unnamed_addr #3

; Function Attrs: nofree nounwind
declare noundef i32 @printf(i8* nocapture noundef readonly, ...) local_unnamed_addr #3


!llvm.module.flags = !{!0, !1, !2, !3}
!llvm.ident = !{!4}

!0 = !{i32 1, !"wchar_size", i32 4}
!1 = !{i32 7, !"PIC Level", i32 2}
!2 = !{i32 7, !"PIE Level", i32 2}
!3 = !{i32 7, !"uwtable", i32 1}
!4 = !{!"clang version 13.0.0"}
!5 = distinct !{!5, !6}
!6 = !{!"llvm.loop.mustprogress"}
!7 = !{!8, !8, i64 0}
!8 = !{!"int", !9, i64 0}
!9 = !{!"omnipotent char", !10, i64 0}
!10 = !{!"Simple C/C++ TBAA"}
!11 = distinct !{!11, !6}
